target datalayout = "e-m:e-p270:32:32-p271:32:32-p272:64:64-i64:64-i128:128-f80:128-n8:16:32:64-S128"
target triple = "x86_64-unknown-linux-gnu"

@_ZZN8QuantLib12_GLOBAL__N_16ADONETEdddPFddddddddddiEE2EI = internal global [101 x double] zeroinitializer, align 16
@_ZZN8QuantLib12_GLOBAL__N_16ADONETEdddPFddddddddddiEE2AI = internal global [101 x double] zeroinitializer, align 16
@_ZZN8QuantLib12_GLOBAL__N_16ADONETEdddPFddddddddddiEE2BI = internal global [101 x double] zeroinitializer, align 16
@_ZZN8QuantLib12_GLOBAL__N_16ADONETEdddPFddddddddddiEE2FI = internal global [101 x double] zeroinitializer, align 16
@_ZZN8QuantLib12_GLOBAL__N_16ADONETEdddPFddddddddddiEE3FIN = internal global double 0.000000e+00, align 8
@_ZZN8QuantLib12_GLOBAL__N_16ADONETEdddPFddddddddddiEE6result = internal global double 0.000000e+00, align 8
@_ZZN8QuantLib12_GLOBAL__N_16ADONETEdddPFddddddddddiEE3ERR = internal global double 0.000000e+00, align 8

; Function Attrs: mustprogress uwtable
define internal noundef double @_ZN8QuantLib12_GLOBAL__N_16ADONETEdddPFddddddddddiE(double noundef %A, double noundef %B, double noundef %TOL, ptr noundef %TVTMFN) #2 {
entry:
  %A.addr = alloca double, align 8
  %B.addr = alloca double, align 8
  %TOL.addr = alloca double, align 8
  %TVTMFN.addr = alloca ptr, align 8
  %NL = alloca i32, align 4
  %I = alloca i32, align 4
  %IM = alloca i32, align 4
  %IP = alloca i32, align 4
  store double %A, ptr %A.addr, align 8, !tbaa !62
  store double %B, ptr %B.addr, align 8, !tbaa !62
  store double %TOL, ptr %TOL.addr, align 8, !tbaa !62
  store ptr %TVTMFN, ptr %TVTMFN.addr, align 8, !tbaa !3
  call void @llvm.lifetime.start.p0(i64 4, ptr %NL) #11
  store i32 100, ptr %NL, align 4, !tbaa !14
  call void @llvm.lifetime.start.p0(i64 4, ptr %I) #11
  call void @llvm.lifetime.start.p0(i64 4, ptr %IM) #11
  call void @llvm.lifetime.start.p0(i64 4, ptr %IP) #11
  %0 = load double, ptr %A.addr, align 8, !tbaa !62
  store double %0, ptr getelementptr inbounds ([101 x double], ptr @_ZZN8QuantLib12_GLOBAL__N_16ADONETEdddPFddddddddddiEE2AI, i64 0, i64 1), align 8, !tbaa !62
  %1 = load double, ptr %B.addr, align 8, !tbaa !62
  store double %1, ptr getelementptr inbounds ([101 x double], ptr @_ZZN8QuantLib12_GLOBAL__N_16ADONETEdddPFddddddddddiEE2BI, i64 0, i64 1), align 8, !tbaa !62
  store double 1.000000e+00, ptr @_ZZN8QuantLib12_GLOBAL__N_16ADONETEdddPFddddddddddiEE3ERR, align 8, !tbaa !62
  store i32 1, ptr %IP, align 4, !tbaa !14
  store i32 1, ptr %IM, align 4, !tbaa !14
  br label %while.cond

while.cond:                                       ; preds = %for.end, %entry
  %2 = load double, ptr @_ZZN8QuantLib12_GLOBAL__N_16ADONETEdddPFddddddddddiEE3ERR, align 8, !tbaa !62
  %mul = fmul double 4.000000e+00, %2
  %3 = load double, ptr %TOL.addr, align 8, !tbaa !62
  %cmp = fcmp ogt double %mul, %3
  br i1 %cmp, label %land.rhs, label %land.end

land.rhs:                                         ; preds = %while.cond
  %4 = load i32, ptr %IM, align 4, !tbaa !14
  %5 = load i32, ptr %NL, align 4, !tbaa !14
  %cmp1 = icmp slt i32 %4, %5
  br label %land.end

land.end:                                         ; preds = %land.rhs, %while.cond
  %6 = phi i1 [ false, %while.cond ], [ %cmp1, %land.rhs ]
  br i1 %6, label %while.body, label %while.end

while.body:                                       ; preds = %land.end
  %7 = load i32, ptr %IM, align 4, !tbaa !14
  %add = add nsw i32 %7, 1
  store i32 %add, ptr %IM, align 4, !tbaa !14
  %8 = load i32, ptr %IP, align 4, !tbaa !14
  %idxprom = sext i32 %8 to i64
  %arrayidx = getelementptr inbounds [101 x double], ptr @_ZZN8QuantLib12_GLOBAL__N_16ADONETEdddPFddddddddddiEE2BI, i64 0, i64 %idxprom
  %9 = load double, ptr %arrayidx, align 8, !tbaa !62
  %10 = load i32, ptr %IM, align 4, !tbaa !14
  %idxprom2 = sext i32 %10 to i64
  %arrayidx3 = getelementptr inbounds [101 x double], ptr @_ZZN8QuantLib12_GLOBAL__N_16ADONETEdddPFddddddddddiEE2BI, i64 0, i64 %idxprom2
  store double %9, ptr %arrayidx3, align 8, !tbaa !62
  %11 = load i32, ptr %IP, align 4, !tbaa !14
  %idxprom4 = sext i32 %11 to i64
  %arrayidx5 = getelementptr inbounds [101 x double], ptr @_ZZN8QuantLib12_GLOBAL__N_16ADONETEdddPFddddddddddiEE2AI, i64 0, i64 %idxprom4
  %12 = load double, ptr %arrayidx5, align 8, !tbaa !62
  %13 = load i32, ptr %IP, align 4, !tbaa !14
  %idxprom6 = sext i32 %13 to i64
  %arrayidx7 = getelementptr inbounds [101 x double], ptr @_ZZN8QuantLib12_GLOBAL__N_16ADONETEdddPFddddddddddiEE2BI, i64 0, i64 %idxprom6
  %14 = load double, ptr %arrayidx7, align 8, !tbaa !62
  %add8 = fadd double %12, %14
  %div = fdiv double %add8, 2.000000e+00
  %15 = load i32, ptr %IM, align 4, !tbaa !14
  %idxprom9 = sext i32 %15 to i64
  %arrayidx10 = getelementptr inbounds [101 x double], ptr @_ZZN8QuantLib12_GLOBAL__N_16ADONETEdddPFddddddddddiEE2AI, i64 0, i64 %idxprom9
  store double %div, ptr %arrayidx10, align 8, !tbaa !62
  %16 = load i32, ptr %IM, align 4, !tbaa !14
  %idxprom11 = sext i32 %16 to i64
  %arrayidx12 = getelementptr inbounds [101 x double], ptr @_ZZN8QuantLib12_GLOBAL__N_16ADONETEdddPFddddddddddiEE2AI, i64 0, i64 %idxprom11
  %17 = load double, ptr %arrayidx12, align 8, !tbaa !62
  %18 = load i32, ptr %IP, align 4, !tbaa !14
  %idxprom13 = sext i32 %18 to i64
  %arrayidx14 = getelementptr inbounds [101 x double], ptr @_ZZN8QuantLib12_GLOBAL__N_16ADONETEdddPFddddddddddiEE2BI, i64 0, i64 %idxprom13
  store double %17, ptr %arrayidx14, align 8, !tbaa !62
  %19 = load i32, ptr %IP, align 4, !tbaa !14
  %idxprom15 = sext i32 %19 to i64
  %arrayidx16 = getelementptr inbounds [101 x double], ptr @_ZZN8QuantLib12_GLOBAL__N_16ADONETEdddPFddddddddddiEE2AI, i64 0, i64 %idxprom15
  %20 = load double, ptr %arrayidx16, align 8, !tbaa !62
  %21 = load i32, ptr %IP, align 4, !tbaa !14
  %idxprom17 = sext i32 %21 to i64
  %arrayidx18 = getelementptr inbounds [101 x double], ptr @_ZZN8QuantLib12_GLOBAL__N_16ADONETEdddPFddddddddddiEE2BI, i64 0, i64 %idxprom17
  %22 = load double, ptr %arrayidx18, align 8, !tbaa !62
  %23 = load ptr, ptr %TVTMFN.addr, align 8, !tbaa !3
  %24 = load i32, ptr %IP, align 4, !tbaa !14
  %idxprom19 = sext i32 %24 to i64
  %arrayidx20 = getelementptr inbounds [101 x double], ptr @_ZZN8QuantLib12_GLOBAL__N_16ADONETEdddPFddddddddddiEE2EI, i64 0, i64 %idxprom19
  %call = call noundef double @_ZN8QuantLib12_GLOBAL__N_16KRNRDTEddPFddddddddddiERd(double noundef %20, double noundef %22, ptr noundef %23, ptr noundef nonnull align 8 dereferenceable(8) %arrayidx20)
  %25 = load i32, ptr %IP, align 4, !tbaa !14
  %idxprom21 = sext i32 %25 to i64
  %arrayidx22 = getelementptr inbounds [101 x double], ptr @_ZZN8QuantLib12_GLOBAL__N_16ADONETEdddPFddddddddddiEE2FI, i64 0, i64 %idxprom21
  store double %call, ptr %arrayidx22, align 8, !tbaa !62
  %26 = load i32, ptr %IM, align 4, !tbaa !14
  %idxprom23 = sext i32 %26 to i64
  %arrayidx24 = getelementptr inbounds [101 x double], ptr @_ZZN8QuantLib12_GLOBAL__N_16ADONETEdddPFddddddddddiEE2AI, i64 0, i64 %idxprom23
  %27 = load double, ptr %arrayidx24, align 8, !tbaa !62
  %28 = load i32, ptr %IM, align 4, !tbaa !14
  %idxprom25 = sext i32 %28 to i64
  %arrayidx26 = getelementptr inbounds [101 x double], ptr @_ZZN8QuantLib12_GLOBAL__N_16ADONETEdddPFddddddddddiEE2BI, i64 0, i64 %idxprom25
  %29 = load double, ptr %arrayidx26, align 8, !tbaa !62
  %30 = load ptr, ptr %TVTMFN.addr, align 8, !tbaa !3
  %31 = load i32, ptr %IM, align 4, !tbaa !14
  %idxprom27 = sext i32 %31 to i64
  %arrayidx28 = getelementptr inbounds [101 x double], ptr @_ZZN8QuantLib12_GLOBAL__N_16ADONETEdddPFddddddddddiEE2EI, i64 0, i64 %idxprom27
  %call29 = call noundef double @_ZN8QuantLib12_GLOBAL__N_16KRNRDTEddPFddddddddddiERd(double noundef %27, double noundef %29, ptr noundef %30, ptr noundef nonnull align 8 dereferenceable(8) %arrayidx28)
  %32 = load i32, ptr %IM, align 4, !tbaa !14
  %idxprom30 = sext i32 %32 to i64
  %arrayidx31 = getelementptr inbounds [101 x double], ptr @_ZZN8QuantLib12_GLOBAL__N_16ADONETEdddPFddddddddddiEE2FI, i64 0, i64 %idxprom30
  store double %call29, ptr %arrayidx31, align 8, !tbaa !62
  store double 0.000000e+00, ptr @_ZZN8QuantLib12_GLOBAL__N_16ADONETEdddPFddddddddddiEE3ERR, align 8, !tbaa !62
  store double 0.000000e+00, ptr @_ZZN8QuantLib12_GLOBAL__N_16ADONETEdddPFddddddddddiEE3FIN, align 8, !tbaa !62
  store i32 1, ptr %I, align 4, !tbaa !14
  br label %for.cond

for.cond:                                         ; preds = %for.inc, %while.body
  %33 = load i32, ptr %I, align 4, !tbaa !14
  %34 = load i32, ptr %IM, align 4, !tbaa !14
  %cmp32 = icmp sle i32 %33, %34
  br i1 %cmp32, label %for.body, label %for.end

for.body:                                         ; preds = %for.cond
  %35 = load i32, ptr %I, align 4, !tbaa !14
  %idxprom33 = sext i32 %35 to i64
  %arrayidx34 = getelementptr inbounds [101 x double], ptr @_ZZN8QuantLib12_GLOBAL__N_16ADONETEdddPFddddddddddiEE2EI, i64 0, i64 %idxprom33
  %36 = load double, ptr %arrayidx34, align 8, !tbaa !62
  %37 = load i32, ptr %IP, align 4, !tbaa !14
  %idxprom35 = sext i32 %37 to i64
  %arrayidx36 = getelementptr inbounds [101 x double], ptr @_ZZN8QuantLib12_GLOBAL__N_16ADONETEdddPFddddddddddiEE2EI, i64 0, i64 %idxprom35
  %38 = load double, ptr %arrayidx36, align 8, !tbaa !62
  %cmp37 = fcmp ogt double %36, %38
  br i1 %cmp37, label %if.then, label %if.end

if.then:                                          ; preds = %for.body
  %39 = load i32, ptr %I, align 4, !tbaa !14
  store i32 %39, ptr %IP, align 4, !tbaa !14
  br label %if.end

if.end:                                           ; preds = %if.then, %for.body
  %40 = load double, ptr @_ZZN8QuantLib12_GLOBAL__N_16ADONETEdddPFddddddddddiEE3FIN, align 8, !tbaa !62
  %41 = load i32, ptr %I, align 4, !tbaa !14
  %idxprom38 = sext i32 %41 to i64
  %arrayidx39 = getelementptr inbounds [101 x double], ptr @_ZZN8QuantLib12_GLOBAL__N_16ADONETEdddPFddddddddddiEE2FI, i64 0, i64 %idxprom38
  %42 = load double, ptr %arrayidx39, align 8, !tbaa !62
  %add40 = fadd double %40, %42
  store double %add40, ptr @_ZZN8QuantLib12_GLOBAL__N_16ADONETEdddPFddddddddddiEE3FIN, align 8, !tbaa !62
  %43 = load double, ptr @_ZZN8QuantLib12_GLOBAL__N_16ADONETEdddPFddddddddddiEE3ERR, align 8, !tbaa !62
  %44 = load i32, ptr %I, align 4, !tbaa !14
  %idxprom41 = sext i32 %44 to i64
  %arrayidx42 = getelementptr inbounds [101 x double], ptr @_ZZN8QuantLib12_GLOBAL__N_16ADONETEdddPFddddddddddiEE2EI, i64 0, i64 %idxprom41
  %45 = load double, ptr %arrayidx42, align 8, !tbaa !62
  %46 = load i32, ptr %I, align 4, !tbaa !14
  %idxprom43 = sext i32 %46 to i64
  %arrayidx44 = getelementptr inbounds [101 x double], ptr @_ZZN8QuantLib12_GLOBAL__N_16ADONETEdddPFddddddddddiEE2EI, i64 0, i64 %idxprom43
  %47 = load double, ptr %arrayidx44, align 8, !tbaa !62
  %48 = call double @llvm.fmuladd.f64(double %45, double %47, double %43)
  store double %48, ptr @_ZZN8QuantLib12_GLOBAL__N_16ADONETEdddPFddddddddddiEE3ERR, align 8, !tbaa !62
  br label %for.inc

for.inc:                                          ; preds = %if.end
  %49 = load i32, ptr %I, align 4, !tbaa !14
  %inc = add nsw i32 %49, 1
  store i32 %inc, ptr %I, align 4, !tbaa !14
  br label %for.cond, !llvm.loop !156

for.end:                                          ; preds = %for.cond
  %50 = load double, ptr @_ZZN8QuantLib12_GLOBAL__N_16ADONETEdddPFddddddddddiEE3ERR, align 8, !tbaa !62
  %call46 = call double @pow(double noundef %50, double noundef 5.000000e-01) #11, !tbaa !14
  store double %call46, ptr @_ZZN8QuantLib12_GLOBAL__N_16ADONETEdddPFddddddddddiEE3ERR, align 8, !tbaa !62
  br label %while.cond, !llvm.loop !157

while.end:                                        ; preds = %land.end
  %51 = load double, ptr @_ZZN8QuantLib12_GLOBAL__N_16ADONETEdddPFddddddddddiEE3FIN, align 8, !tbaa !62
  store double %51, ptr @_ZZN8QuantLib12_GLOBAL__N_16ADONETEdddPFddddddddddiEE6result, align 8, !tbaa !62
  %52 = load double, ptr @_ZZN8QuantLib12_GLOBAL__N_16ADONETEdddPFddddddddddiEE6result, align 8, !tbaa !62
  call void @llvm.lifetime.end.p0(i64 4, ptr %IP) #11
  call void @llvm.lifetime.end.p0(i64 4, ptr %IM) #11
  call void @llvm.lifetime.end.p0(i64 4, ptr %I) #11
  call void @llvm.lifetime.end.p0(i64 4, ptr %NL) #11
  ret double %52
}