; Function Attrs: mustprogress nofree nounwind memory(readwrite, inaccessiblemem: write) uwtable
define internal fastcc noundef double @_ZN8QuantLib12_GLOBAL__N_16ADONETEdddPFddddddddddiE(double noundef %A, double noundef %B, double noundef %TOL) unnamed_addr #22 {
entry:
  store double %A, ptr getelementptr inbounds (i8, ptr @_ZZN8QuantLib12_GLOBAL__N_16ADONETEdddPFddddddddddiEE2AI, i64 8), align 8, !tbaa !107
  store double %B, ptr getelementptr inbounds (i8, ptr @_ZZN8QuantLib12_GLOBAL__N_16ADONETEdddPFddddddddddiEE2BI, i64 8), align 8, !tbaa !107
  %cmp5 = fcmp olt double %TOL, 4.000000e+00
  br i1 %cmp5, label %while.body, label %entry.while.end_crit_edge

entry.while.end_crit_edge:                        ; preds = %entry
  %.pre = load double, ptr @_ZZN8QuantLib12_GLOBAL__N_16ADONETEdddPFddddddddddiEE3FIN, align 8, !tbaa !107
  br label %while.end

while.body:                                       ; preds = %entry, %for.end
  %indvars.iv13 = phi i64 [ %indvars.iv.next14, %for.end ], [ 1, %entry ]
  %indvars.iv11 = phi i64 [ %indvars.iv.next12, %for.end ], [ 3, %entry ]
  %IP.07 = phi i32 [ %IP.2, %for.end ], [ 1, %entry ]
  %indvars.iv.next14 = add nuw nsw i64 %indvars.iv13, 1
  %idxprom = sext i32 %IP.07 to i64
  %arrayidx = getelementptr inbounds [101 x double], ptr @_ZZN8QuantLib12_GLOBAL__N_16ADONETEdddPFddddddddddiEE2BI, i64 0, i64 %idxprom
  %0 = load double, ptr %arrayidx, align 8, !tbaa !107
  %arrayidx3 = getelementptr inbounds [101 x double], ptr @_ZZN8QuantLib12_GLOBAL__N_16ADONETEdddPFddddddddddiEE2BI, i64 0, i64 %indvars.iv.next14
  store double %0, ptr %arrayidx3, align 8, !tbaa !107
  %arrayidx5 = getelementptr inbounds [101 x double], ptr @_ZZN8QuantLib12_GLOBAL__N_16ADONETEdddPFddddddddddiEE2AI, i64 0, i64 %idxprom
  %1 = load double, ptr %arrayidx5, align 8, !tbaa !107
  %add8 = fadd double %1, %0
  %div = fmul double %add8, 5.000000e-01
  %arrayidx10 = getelementptr inbounds [101 x double], ptr @_ZZN8QuantLib12_GLOBAL__N_16ADONETEdddPFddddddddddiEE2AI, i64 0, i64 %indvars.iv.next14
  store double %div, ptr %arrayidx10, align 8, !tbaa !107
  store double %div, ptr %arrayidx, align 8, !tbaa !107
  %2 = load double, ptr %arrayidx5, align 8, !tbaa !107
  %arrayidx20 = getelementptr inbounds [101 x double], ptr @_ZZN8QuantLib12_GLOBAL__N_16ADONETEdddPFddddddddddiEE2EI, i64 0, i64 %idxprom
  %call = tail call fastcc noundef double @_ZN8QuantLib12_GLOBAL__N_16KRNRDTEddPFddddddddddiERd(double noundef %2, double noundef %div, ptr noundef nonnull align 8 dereferenceable(8) %arrayidx20)
  %arrayidx22 = getelementptr inbounds [101 x double], ptr @_ZZN8QuantLib12_GLOBAL__N_16ADONETEdddPFddddddddddiEE2FI, i64 0, i64 %idxprom
  store double %call, ptr %arrayidx22, align 8, !tbaa !107
  %3 = load double, ptr %arrayidx10, align 8, !tbaa !107
  %4 = load double, ptr %arrayidx3, align 8, !tbaa !107
  %arrayidx28 = getelementptr inbounds [101 x double], ptr @_ZZN8QuantLib12_GLOBAL__N_16ADONETEdddPFddddddddddiEE2EI, i64 0, i64 %indvars.iv.next14
  %call29 = tail call fastcc noundef double @_ZN8QuantLib12_GLOBAL__N_16KRNRDTEddPFddddddddddiERd(double noundef %3, double noundef %4, ptr noundef nonnull align 8 dereferenceable(8) %arrayidx28)
  %arrayidx31 = getelementptr inbounds [101 x double], ptr @_ZZN8QuantLib12_GLOBAL__N_16ADONETEdddPFddddddddddiEE2FI, i64 0, i64 %indvars.iv.next14
  store double %call29, ptr %arrayidx31, align 8, !tbaa !107
  br label %for.body

for.body:                                         ; preds = %while.body, %for.body
  %indvars.iv = phi i64 [ 1, %while.body ], [ %indvars.iv.next, %for.body ]
  %IP.14 = phi i32 [ %IP.07, %while.body ], [ %IP.2, %for.body ]
  %add4012 = phi double [ 0.000000e+00, %while.body ], [ %add40, %for.body ]
  %5 = phi double [ 0.000000e+00, %while.body ], [ %10, %for.body ]
  %arrayidx34 = getelementptr inbounds [101 x double], ptr @_ZZN8QuantLib12_GLOBAL__N_16ADONETEdddPFddddddddddiEE2EI, i64 0, i64 %indvars.iv
  %6 = load double, ptr %arrayidx34, align 8, !tbaa !107
  %idxprom35 = sext i32 %IP.14 to i64
  %arrayidx36 = getelementptr inbounds [101 x double], ptr @_ZZN8QuantLib12_GLOBAL__N_16ADONETEdddPFddddddddddiEE2EI, i64 0, i64 %idxprom35
  %7 = load double, ptr %arrayidx36, align 8, !tbaa !107
  %cmp37 = fcmp ogt double %6, %7
  %8 = trunc nuw nsw i64 %indvars.iv to i32
  %IP.2 = select i1 %cmp37, i32 %8, i32 %IP.14
  %arrayidx39 = getelementptr inbounds [101 x double], ptr @_ZZN8QuantLib12_GLOBAL__N_16ADONETEdddPFddddddddddiEE2FI, i64 0, i64 %indvars.iv
  %9 = load double, ptr %arrayidx39, align 8, !tbaa !107
  %add40 = fadd double %add4012, %9
  %10 = tail call double @llvm.fmuladd.f64(double %6, double %6, double %5)
  %indvars.iv.next = add nuw nsw i64 %indvars.iv, 1
  %exitcond = icmp eq i64 %indvars.iv.next, %indvars.iv11
  br i1 %exitcond, label %for.end, label %for.body, !llvm.loop !140

for.end:                                          ; preds = %for.body
  store double %add40, ptr @_ZZN8QuantLib12_GLOBAL__N_16ADONETEdddPFddddddddddiEE3FIN, align 8, !tbaa !107
  %call46 = tail call double @pow(double noundef %10, double noundef 5.000000e-01) #30, !tbaa !108
  %mul = fmul double %call46, 4.000000e+00
  %cmp = fcmp ogt double %mul, %TOL
  %cmp1 = icmp ult i64 %indvars.iv13, 99
  %11 = and i1 %cmp, %cmp1
  %indvars.iv.next12 = add nuw nsw i64 %indvars.iv11, 1
  br i1 %11, label %while.body, label %while.end, !llvm.loop !141

while.end:                                        ; preds = %for.end, %entry.while.end_crit_edge
  %12 = phi double [ %.pre, %entry.while.end_crit_edge ], [ %add40, %for.end ]
  ret double %12
}